ARM GAS  C:\Users\GCRIST~1\AppData\Local\Temp\ccHbClcc.s 			page 1


   1              		.syntax unified
   2              		.cpu cortex-m0plus
   3              		.fpu softvfp
   4              		.eabi_attribute 20, 1
   5              		.eabi_attribute 21, 1
   6              		.eabi_attribute 23, 3
   7              		.eabi_attribute 24, 1
   8              		.eabi_attribute 25, 1
   9              		.eabi_attribute 26, 1
  10              		.eabi_attribute 30, 1
  11              		.eabi_attribute 34, 0
  12              		.eabi_attribute 18, 4
  13              		.thumb
  14              		.syntax unified
  15              		.file	"main.c"
  16              		.text
  17              	.Ltext0:
  18              		.cfi_sections	.debug_frame
  19              		.section	.text.init,"ax",%progbits
  20              		.align	2
  21              		.global	init
  22              		.code	16
  23              		.thumb_func
  24              		.type	init, %function
  25              	init:
  26              	.LFB34:
  27              		.file 1 "main.c"
   1:main.c        **** /* ========================================
   2:main.c        ****  *
   3:main.c        ****  * Copyright YOUR COMPANY, THE YEAR
   4:main.c        ****  * All Rights Reserved
   5:main.c        ****  * UNPUBLISHED, LICENSED SOFTWARE.
   6:main.c        ****  *
   7:main.c        ****  * CONFIDENTIAL AND PROPRIETARY INFORMATION
   8:main.c        ****  * WHICH IS THE PROPERTY OF your company.
   9:main.c        ****  *
  10:main.c        ****  * ========================================
  11:main.c        **** */
  12:main.c        **** #include "project.h"
  13:main.c        **** 
  14:main.c        **** #define BUFFER_SIZE 100
  15:main.c        **** #define forever for (;;)
  16:main.c        **** 
  17:main.c        **** #define RELAY_ON 1
  18:main.c        **** #define RELAY_OFF 0
  19:main.c        **** 
  20:main.c        **** void pollUart(void);
  21:main.c        **** void init(void);
  22:main.c        **** void parseCommand(const char *command);
  23:main.c        **** 
  24:main.c        **** int main(void)
  25:main.c        **** {
  26:main.c        **** 
  27:main.c        ****     /* Initializtion */
  28:main.c        ****     init();
  29:main.c        **** 
  30:main.c        ****     /* Main Loop */
ARM GAS  C:\Users\GCRIST~1\AppData\Local\Temp\ccHbClcc.s 			page 2


  31:main.c        ****     forever
  32:main.c        ****     {
  33:main.c        ****         pollUart();
  34:main.c        ****     }
  35:main.c        **** }
  36:main.c        **** 
  37:main.c        **** void init(void)
  38:main.c        **** {
  28              		.loc 1 38 0
  29              		.cfi_startproc
  30              		@ args = 0, pretend = 0, frame = 0
  31              		@ frame_needed = 0, uses_anonymous_args = 0
  32 0000 10B5     		push	{r4, lr}
  33              		.cfi_def_cfa_offset 8
  34              		.cfi_offset 4, -8
  35              		.cfi_offset 14, -4
  39:main.c        ****     UartPC_Start();
  36              		.loc 1 39 0
  37 0002 FFF7FEFF 		bl	UartPC_Start
  38              	.LVL0:
  40:main.c        **** }
  39              		.loc 1 40 0
  40              		@ sp needed
  41 0006 10BD     		pop	{r4, pc}
  42              		.cfi_endproc
  43              	.LFE34:
  44              		.size	init, .-init
  45              		.section	.text.parseCommand,"ax",%progbits
  46              		.align	2
  47              		.global	parseCommand
  48              		.code	16
  49              		.thumb_func
  50              		.type	parseCommand, %function
  51              	parseCommand:
  52              	.LFB35:
  41:main.c        **** 
  42:main.c        **** void parseCommand(const char *command)
  43:main.c        **** {
  53              		.loc 1 43 0
  54              		.cfi_startproc
  55              		@ args = 0, pretend = 0, frame = 0
  56              		@ frame_needed = 0, uses_anonymous_args = 0
  57              	.LVL1:
  58 0000 10B5     		push	{r4, lr}
  59              		.cfi_def_cfa_offset 8
  60              		.cfi_offset 4, -8
  61              		.cfi_offset 14, -4
  62 0002 0400     		movs	r4, r0
  44:main.c        ****     if (!strcmp (command, "on"))
  63              		.loc 1 44 0
  64 0004 1849     		ldr	r1, .L5
  65 0006 FFF7FEFF 		bl	strcmp
  66              	.LVL2:
  67 000a 0028     		cmp	r0, #0
  68 000c 12D1     		bne	.L3
  45:main.c        ****     {
  46:main.c        ****         UartPC_UartPutString("Relay_On");
ARM GAS  C:\Users\GCRIST~1\AppData\Local\Temp\ccHbClcc.s 			page 3


  69              		.loc 1 46 0
  70 000e 1748     		ldr	r0, .L5+4
  71 0010 FFF7FEFF 		bl	UartPC_UartPutString
  72              	.LVL3:
  47:main.c        ****         
  48:main.c        ****         Pin_1_Write(RELAY_ON);
  73              		.loc 1 48 0
  74 0014 0120     		movs	r0, #1
  75 0016 FFF7FEFF 		bl	Pin_1_Write
  76              	.LVL4:
  49:main.c        ****         Pin_2_Write(RELAY_ON);
  77              		.loc 1 49 0
  78 001a 0120     		movs	r0, #1
  79 001c FFF7FEFF 		bl	Pin_2_Write
  80              	.LVL5:
  50:main.c        ****         Pin_3_Write(RELAY_ON);
  81              		.loc 1 50 0
  82 0020 0120     		movs	r0, #1
  83 0022 FFF7FEFF 		bl	Pin_3_Write
  84              	.LVL6:
  51:main.c        ****         Pin_4_Write(RELAY_ON);
  85              		.loc 1 51 0
  86 0026 0120     		movs	r0, #1
  87 0028 FFF7FEFF 		bl	Pin_4_Write
  88              	.LVL7:
  52:main.c        ****         Pin_5_Write(RELAY_ON);
  89              		.loc 1 52 0
  90 002c 0120     		movs	r0, #1
  91 002e FFF7FEFF 		bl	Pin_5_Write
  92              	.LVL8:
  93 0032 17E0     		b	.L2
  94              	.L3:
  53:main.c        ****     }
  54:main.c        ****     else if (!strcmp (command, "off"))
  95              		.loc 1 54 0
  96 0034 0E49     		ldr	r1, .L5+8
  97 0036 2000     		movs	r0, r4
  98 0038 FFF7FEFF 		bl	strcmp
  99              	.LVL9:
 100 003c 0028     		cmp	r0, #0
 101 003e 11D1     		bne	.L2
  55:main.c        ****     {
  56:main.c        ****         UartPC_UartPutString("Relay_Off");
 102              		.loc 1 56 0
 103 0040 0C48     		ldr	r0, .L5+12
 104 0042 FFF7FEFF 		bl	UartPC_UartPutString
 105              	.LVL10:
  57:main.c        **** 
  58:main.c        ****         Pin_1_Write(RELAY_OFF);
 106              		.loc 1 58 0
 107 0046 0020     		movs	r0, #0
 108 0048 FFF7FEFF 		bl	Pin_1_Write
 109              	.LVL11:
  59:main.c        ****         Pin_2_Write(RELAY_OFF);
 110              		.loc 1 59 0
 111 004c 0020     		movs	r0, #0
 112 004e FFF7FEFF 		bl	Pin_2_Write
ARM GAS  C:\Users\GCRIST~1\AppData\Local\Temp\ccHbClcc.s 			page 4


 113              	.LVL12:
  60:main.c        ****         Pin_3_Write(RELAY_OFF);
 114              		.loc 1 60 0
 115 0052 0020     		movs	r0, #0
 116 0054 FFF7FEFF 		bl	Pin_3_Write
 117              	.LVL13:
  61:main.c        ****         Pin_4_Write(RELAY_OFF);
 118              		.loc 1 61 0
 119 0058 0020     		movs	r0, #0
 120 005a FFF7FEFF 		bl	Pin_4_Write
 121              	.LVL14:
  62:main.c        ****         Pin_5_Write(RELAY_OFF); 
 122              		.loc 1 62 0
 123 005e 0020     		movs	r0, #0
 124 0060 FFF7FEFF 		bl	Pin_5_Write
 125              	.LVL15:
 126              	.L2:
  63:main.c        ****     }
  64:main.c        ****     else    
  65:main.c        ****     {
  66:main.c        ****         /* code */
  67:main.c        ****     }
  68:main.c        ****     return;
  69:main.c        **** }
 127              		.loc 1 69 0
 128              		@ sp needed
 129              	.LVL16:
 130 0064 10BD     		pop	{r4, pc}
 131              	.L6:
 132 0066 C046     		.align	2
 133              	.L5:
 134 0068 00000000 		.word	.LC0
 135 006c 04000000 		.word	.LC2
 136 0070 10000000 		.word	.LC4
 137 0074 14000000 		.word	.LC6
 138              		.cfi_endproc
 139              	.LFE35:
 140              		.size	parseCommand, .-parseCommand
 141              		.section	.text.pollUart,"ax",%progbits
 142              		.align	2
 143              		.global	pollUart
 144              		.code	16
 145              		.thumb_func
 146              		.type	pollUart, %function
 147              	pollUart:
 148              	.LFB36:
  70:main.c        **** 
  71:main.c        **** void pollUart()
  72:main.c        **** {
 149              		.loc 1 72 0
 150              		.cfi_startproc
 151              		@ args = 0, pretend = 0, frame = 0
 152              		@ frame_needed = 0, uses_anonymous_args = 0
 153 0000 70B5     		push	{r4, r5, r6, lr}
 154              		.cfi_def_cfa_offset 16
 155              		.cfi_offset 4, -16
 156              		.cfi_offset 5, -12
ARM GAS  C:\Users\GCRIST~1\AppData\Local\Temp\ccHbClcc.s 			page 5


 157              		.cfi_offset 6, -8
 158              		.cfi_offset 14, -4
  73:main.c        ****     static uint8 ch;
  74:main.c        ****     static uint16 rxDataIndex = 0u;
  75:main.c        ****     static uint8 rxData[BUFFER_SIZE];
  76:main.c        ****     static uint8 *rxCommand;
  77:main.c        **** 
  78:main.c        **** 
  79:main.c        ****     /* Get received character or zero if nothing has been received yet */
  80:main.c        ****     ch = UartPC_UartGetChar();
 159              		.loc 1 80 0
 160 0002 FFF7FEFF 		bl	UartPC_UartGetChar
 161              	.LVL17:
 162 0006 C0B2     		uxtb	r0, r0
  81:main.c        ****     if (0u != ch)
 163              		.loc 1 81 0
 164 0008 0028     		cmp	r0, #0
 165 000a 23D0     		beq	.L7
  82:main.c        ****     {
  83:main.c        ****         /* Store the last received char */
  84:main.c        ****         rxData[rxDataIndex] = ch;
 166              		.loc 1 84 0
 167 000c 124B     		ldr	r3, .L12
 168 000e 1A88     		ldrh	r2, [r3]
 169 0010 9B18     		adds	r3, r3, r2
 170 0012 1871     		strb	r0, [r3, #4]
  85:main.c        **** 
  86:main.c        ****         if (ch == '\r')
 171              		.loc 1 86 0
 172 0014 0D28     		cmp	r0, #13
 173 0016 19D1     		bne	.L9
  87:main.c        ****         {
  88:main.c        ****             /* Insert the string terminator character */
  89:main.c        ****             rxData[rxDataIndex] = '\0';
 174              		.loc 1 89 0
 175 0018 0F4C     		ldr	r4, .L12
 176 001a 0025     		movs	r5, #0
 177 001c 1D71     		strb	r5, [r3, #4]
  90:main.c        **** 
  91:main.c        ****             /* Point to buffer */
  92:main.c        ****             rxCommand = rxData;
 178              		.loc 1 92 0
 179 001e 201D     		adds	r0, r4, #4
 180 0020 A066     		str	r0, [r4, #104]
  93:main.c        ****             UartPC_UartPutString((const char *)rxCommand);
 181              		.loc 1 93 0
 182 0022 FFF7FEFF 		bl	UartPC_UartPutString
 183              	.LVL18:
  94:main.c        ****             parseCommand((const char*) rxCommand);
 184              		.loc 1 94 0
 185 0026 A06E     		ldr	r0, [r4, #104]
 186 0028 FFF7FEFF 		bl	parseCommand
 187              	.LVL19:
  95:main.c        **** 
  96:main.c        ****             /* Clear buffer and index */
  97:main.c        ****             for (rxDataIndex = 0; rxDataIndex < BUFFER_SIZE; rxDataIndex++)
 188              		.loc 1 97 0
ARM GAS  C:\Users\GCRIST~1\AppData\Local\Temp\ccHbClcc.s 			page 6


 189 002c 2580     		strh	r5, [r4]
 190 002e 05E0     		b	.L10
 191              	.L11:
  98:main.c        ****             {
  99:main.c        ****                 rxData[rxDataIndex] = 0u;
 192              		.loc 1 99 0 discriminator 3
 193 0030 094A     		ldr	r2, .L12
 194 0032 D118     		adds	r1, r2, r3
 195 0034 0020     		movs	r0, #0
 196 0036 0871     		strb	r0, [r1, #4]
  97:main.c        ****             {
 197              		.loc 1 97 0 discriminator 3
 198 0038 0133     		adds	r3, r3, #1
 199 003a 1380     		strh	r3, [r2]
 200              	.L10:
  97:main.c        ****             {
 201              		.loc 1 97 0 is_stmt 0 discriminator 1
 202 003c 064B     		ldr	r3, .L12
 203 003e 1B88     		ldrh	r3, [r3]
 204 0040 632B     		cmp	r3, #99
 205 0042 F5D9     		bls	.L11
 100:main.c        ****             }
 101:main.c        **** 
 102:main.c        ****             rxDataIndex = -1;
 206              		.loc 1 102 0 is_stmt 1
 207 0044 0122     		movs	r2, #1
 208 0046 5242     		rsbs	r2, r2, #0
 209 0048 034B     		ldr	r3, .L12
 210 004a 1A80     		strh	r2, [r3]
 211              	.L9:
 103:main.c        ****         }
 104:main.c        **** 
 105:main.c        ****         rxDataIndex++;
 212              		.loc 1 105 0
 213 004c 024A     		ldr	r2, .L12
 214 004e 1388     		ldrh	r3, [r2]
 215 0050 0133     		adds	r3, r3, #1
 216 0052 1380     		strh	r3, [r2]
 217              	.L7:
 106:main.c        ****     }
 107:main.c        **** }
 218              		.loc 1 107 0
 219              		@ sp needed
 220 0054 70BD     		pop	{r4, r5, r6, pc}
 221              	.L13:
 222 0056 C046     		.align	2
 223              	.L12:
 224 0058 00000000 		.word	.LANCHOR0
 225              		.cfi_endproc
 226              	.LFE36:
 227              		.size	pollUart, .-pollUart
 228              		.section	.text.main,"ax",%progbits
 229              		.align	2
 230              		.global	main
 231              		.code	16
 232              		.thumb_func
 233              		.type	main, %function
ARM GAS  C:\Users\GCRIST~1\AppData\Local\Temp\ccHbClcc.s 			page 7


 234              	main:
 235              	.LFB33:
  25:main.c        **** 
 236              		.loc 1 25 0
 237              		.cfi_startproc
 238              		@ Volatile: function does not return.
 239              		@ args = 0, pretend = 0, frame = 0
 240              		@ frame_needed = 0, uses_anonymous_args = 0
 241 0000 10B5     		push	{r4, lr}
 242              		.cfi_def_cfa_offset 8
 243              		.cfi_offset 4, -8
 244              		.cfi_offset 14, -4
  28:main.c        **** 
 245              		.loc 1 28 0
 246 0002 FFF7FEFF 		bl	init
 247              	.LVL20:
 248              	.L15:
  33:main.c        ****     }
 249              		.loc 1 33 0 discriminator 1
 250 0006 FFF7FEFF 		bl	pollUart
 251              	.LVL21:
 252 000a FCE7     		b	.L15
 253              		.cfi_endproc
 254              	.LFE33:
 255              		.size	main, .-main
 256              		.section	.rodata.str1.4,"aMS",%progbits,1
 257              		.align	2
 258              	.LC0:
 259 0000 6F6E00   		.ascii	"on\000"
 260 0003 00       		.space	1
 261              	.LC2:
 262 0004 52656C61 		.ascii	"Relay_On\000"
 262      795F4F6E 
 262      00
 263 000d 000000   		.space	3
 264              	.LC4:
 265 0010 6F666600 		.ascii	"off\000"
 266              	.LC6:
 267 0014 52656C61 		.ascii	"Relay_Off\000"
 267      795F4F66 
 267      6600
 268              		.bss
 269              		.align	2
 270              		.set	.LANCHOR0,. + 0
 271              		.type	rxDataIndex.5606, %object
 272              		.size	rxDataIndex.5606, 2
 273              	rxDataIndex.5606:
 274 0000 0000     		.space	2
 275 0002 0000     		.space	2
 276              		.type	rxData.5607, %object
 277              		.size	rxData.5607, 100
 278              	rxData.5607:
 279 0004 00000000 		.space	100
 279      00000000 
 279      00000000 
 279      00000000 
 279      00000000 
ARM GAS  C:\Users\GCRIST~1\AppData\Local\Temp\ccHbClcc.s 			page 8


 280              		.type	rxCommand.5608, %object
 281              		.size	rxCommand.5608, 4
 282              	rxCommand.5608:
 283 0068 00000000 		.space	4
 284              		.text
 285              	.Letext0:
 286              		.file 2 "Generated_Source\\PSoC4/cytypes.h"
 287              		.file 3 "Generated_Source\\PSoC4/UartPC.h"
 288              		.file 4 "c:\\program files (x86)\\cypress\\psoc creator\\4.3\\psoc creator\\import\\gnu\\arm\\5.4.
 289              		.file 5 "Generated_Source\\PSoC4/UartPC_SPI_UART.h"
 290              		.file 6 "Generated_Source\\PSoC4/Pin_1.h"
 291              		.file 7 "Generated_Source\\PSoC4/Pin_2.h"
 292              		.file 8 "Generated_Source\\PSoC4/Pin_3.h"
 293              		.file 9 "Generated_Source\\PSoC4/Pin_4.h"
 294              		.file 10 "Generated_Source\\PSoC4/Pin_5.h"